target datalayout = "e-m:e-p270:32:32-p271:32:32-p272:64:64-i64:64-i128:128-f80:128-n8:16:32:64-S128"
target triple = "x86_64-pc-linux-gnu"

%struct.OutputPluginCallbacks = type { ptr, ptr, ptr, ptr, ptr, ptr, ptr, ptr, ptr, ptr, ptr, ptr, ptr, ptr, ptr, ptr, ptr, ptr, ptr, ptr, ptr }
%struct.LogicalDecodingContext = type { ptr, ptr, ptr, ptr, ptr, i8, %struct.OutputPluginCallbacks, %struct.OutputPluginOptions, ptr, ptr, ptr, ptr, ptr, ptr, ptr, i8, i8, i8, i8, i8, i64, i32, i8, i8 }
%struct.OutputPluginOptions = type { i32, i8 }
%struct.RelFileLocator = type { i32, i32, i32 }
%struct.RelationSyncEntry = type { i32, i8, i8, i32, ptr, %struct.PublicationActions, [3 x ptr], ptr, ptr, ptr, i32, ptr, ptr, ptr }
%struct.PublicationActions = type { i8, i8, i8, i8 }
%struct.RelationData = type { %struct.RelFileLocator, ptr, i32, i32, i8, i8, i8, i8, i8, i32, i32, i32, i32, ptr, ptr, i32, %struct.LockInfoData, ptr, ptr, ptr, ptr, ptr, i8, ptr, ptr, ptr, ptr, ptr, ptr, i32, ptr, i8, ptr, ptr, i32, i8, i32, ptr, i8, ptr, ptr, ptr, ptr, ptr, ptr, ptr, i32, ptr, ptr, ptr, ptr, ptr, ptr, ptr, ptr, ptr, ptr, ptr, ptr, ptr, ptr, ptr, ptr, ptr, ptr, ptr, i32, i8, ptr }
%struct.LockInfoData = type { %struct.LockRelId }
%struct.LockRelId = type { i32, i32 }
%struct.nameData = type { [64 x i8] }
%struct.TupleDescData = type { i32, i32, i32, i32, ptr, [0 x %struct.CompactAttribute] }
%struct.CompactAttribute = type { i32, i16, i8, i8, i8, i8, i8, i8, i8 }
%struct.FormData_pg_attribute = type { i32, %struct.nameData, i32, i16, i16, i32, i16, i8, i8, i8, i8, i8, i8, i8, i8, i8, i8, i8, i16, i32 }

; Function Attrs: inlinehint nounwind uwtable
define internal ptr @TupleDescAttr(ptr noundef %0, i32 noundef %1) #8 {
  %3 = alloca ptr, align 8
  %4 = alloca i32, align 4
  %5 = alloca ptr, align 8
  store ptr %0, ptr %3, align 8
  store i32 %1, ptr %4, align 4
  call void @llvm.lifetime.start.p0(i64 8, ptr %5) #10
  %6 = load ptr, ptr %3, align 8
  %7 = load ptr, ptr %3, align 8
  %8 = getelementptr inbounds nuw %struct.TupleDescData, ptr %7, i32 0, i32 0
  %9 = load i32, ptr %8, align 8
  %10 = sext i32 %9 to i64
  %11 = mul i64 %10, 16
  %12 = add i64 24, %11
  %13 = getelementptr inbounds nuw i8, ptr %6, i64 %12
  store ptr %13, ptr %5, align 8
  %14 = load ptr, ptr %5, align 8
  %15 = load i32, ptr %4, align 4
  %16 = sext i32 %15 to i64
  %17 = getelementptr inbounds %struct.FormData_pg_attribute, ptr %14, i64 %16
  call void @llvm.lifetime.end.p0(i64 8, ptr %5) #10
  ret ptr %17
}

; Function Attrs: nounwind uwtable
define internal void @send_relation_and_attrs(ptr noundef %0, i32 noundef %1, ptr noundef %2, ptr noundef %3) #0 {
  %5 = alloca ptr, align 8
  %6 = alloca i32, align 4
  %7 = alloca ptr, align 8
  %8 = alloca ptr, align 8
  %9 = alloca ptr, align 8
  %10 = alloca ptr, align 8
  %11 = alloca i32, align 4
  %12 = alloca i32, align 4
  %13 = alloca ptr, align 8
  %14 = alloca i32, align 4
  store ptr %0, ptr %5, align 8
  store i32 %1, ptr %6, align 4
  store ptr %2, ptr %7, align 8
  store ptr %3, ptr %8, align 8
  call void @llvm.lifetime.start.p0(i64 8, ptr %9) #10
  %15 = load ptr, ptr %5, align 8
  %16 = getelementptr inbounds nuw %struct.RelationData, ptr %15, i32 0, i32 14
  %17 = load ptr, ptr %16, align 8
  store ptr %17, ptr %9, align 8
  call void @llvm.lifetime.start.p0(i64 8, ptr %10) #10
  %18 = load ptr, ptr %8, align 8
  %19 = getelementptr inbounds nuw %struct.RelationSyncEntry, ptr %18, i32 0, i32 12
  %20 = load ptr, ptr %19, align 8
  store ptr %20, ptr %10, align 8
  call void @llvm.lifetime.start.p0(i64 4, ptr %11) #10
  %21 = load ptr, ptr %8, align 8
  %22 = getelementptr inbounds nuw %struct.RelationSyncEntry, ptr %21, i32 0, i32 3
  %23 = load i32, ptr %22, align 8
  store i32 %23, ptr %11, align 4
  call void @llvm.lifetime.start.p0(i64 4, ptr %12) #10
  store i32 0, ptr %12, align 4
  br label %24

24:                                               ; preds = %58, %4
  %25 = load i32, ptr %12, align 4
  %26 = load ptr, ptr %9, align 8
  %27 = getelementptr inbounds nuw %struct.TupleDescData, ptr %26, i32 0, i32 0
  %28 = load i32, ptr %27, align 8
  %29 = icmp slt i32 %25, %28
  br i1 %29, label %30, label %61

30:                                               ; preds = %24
  call void @llvm.lifetime.start.p0(i64 8, ptr %13) #10
  %31 = load ptr, ptr %9, align 8
  %32 = load i32, ptr %12, align 4
  %33 = call ptr @TupleDescAttr(ptr noundef %31, i32 noundef %32)
  store ptr %33, ptr %13, align 8
  %34 = load ptr, ptr %13, align 8
  %35 = load ptr, ptr %10, align 8
  %36 = load i32, ptr %11, align 4
  %37 = call zeroext i1 @logicalrep_should_publish_column(ptr noundef %34, ptr noundef %35, i32 noundef %36)
  br i1 %37, label %39, label %38

38:                                               ; preds = %30
  store i32 4, ptr %14, align 4
  br label %55

39:                                               ; preds = %30
  %40 = load ptr, ptr %13, align 8
  %41 = getelementptr inbounds nuw %struct.FormData_pg_attribute, ptr %40, i32 0, i32 2
  %42 = load i32, ptr %41, align 4
  %43 = icmp ult i32 %42, 10000
  br i1 %43, label %44, label %45

44:                                               ; preds = %39
  store i32 4, ptr %14, align 4
  br label %55

45:                                               ; preds = %39
  %46 = load ptr, ptr %7, align 8
  call void @OutputPluginPrepareWrite(ptr noundef %46, i1 noundef zeroext false)
  %47 = load ptr, ptr %7, align 8
  %48 = getelementptr inbounds nuw %struct.LogicalDecodingContext, ptr %47, i32 0, i32 12
  %49 = load ptr, ptr %48, align 8
  %50 = load i32, ptr %6, align 4
  %51 = load ptr, ptr %13, align 8
  %52 = getelementptr inbounds nuw %struct.FormData_pg_attribute, ptr %51, i32 0, i32 2
  %53 = load i32, ptr %52, align 4
  call void @logicalrep_write_typ(ptr noundef %49, i32 noundef %50, i32 noundef %53)
  %54 = load ptr, ptr %7, align 8
  call void @OutputPluginWrite(ptr noundef %54, i1 noundef zeroext false)
  store i32 0, ptr %14, align 4
  br label %55

55:                                               ; preds = %45, %44, %38
  call void @llvm.lifetime.end.p0(i64 8, ptr %13) #10
  %56 = load i32, ptr %14, align 4
  switch i32 %56, label %71 [
    i32 0, label %57
    i32 4, label %58
  ]

57:                                               ; preds = %55
  br label %58

58:                                               ; preds = %57, %55
  %59 = load i32, ptr %12, align 4
  %60 = add i32 %59, 1
  store i32 %60, ptr %12, align 4
  br label %24, !llvm.loop !21

61:                                               ; preds = %24
  %62 = load ptr, ptr %7, align 8
  call void @OutputPluginPrepareWrite(ptr noundef %62, i1 noundef zeroext false)
  %63 = load ptr, ptr %7, align 8
  %64 = getelementptr inbounds nuw %struct.LogicalDecodingContext, ptr %63, i32 0, i32 12
  %65 = load ptr, ptr %64, align 8
  %66 = load i32, ptr %6, align 4
  %67 = load ptr, ptr %5, align 8
  %68 = load ptr, ptr %10, align 8
  %69 = load i32, ptr %11, align 4
  call void @logicalrep_write_rel(ptr noundef %65, i32 noundef %66, ptr noundef %67, ptr noundef %68, i32 noundef %69)
  %70 = load ptr, ptr %7, align 8
  call void @OutputPluginWrite(ptr noundef %70, i1 noundef zeroext false)
  call void @llvm.lifetime.end.p0(i64 4, ptr %12) #10
  call void @llvm.lifetime.end.p0(i64 4, ptr %11) #10
  call void @llvm.lifetime.end.p0(i64 8, ptr %10) #10
  call void @llvm.lifetime.end.p0(i64 8, ptr %9) #10
  ret void

71:                                               ; preds = %55
  unreachable
}