; Function Attrs: nounwind uwtable
define internal fastcc void @send_relation_and_attrs(ptr noundef %0, i32 noundef %1, ptr noundef %2, i32 %.8.val, ptr %.96.val) unnamed_addr #2 {
  %4 = getelementptr inbounds nuw i8, ptr %0, i64 64
  %5 = load ptr, ptr %4, align 8
  %invariant.gep = getelementptr i8, ptr %5, i64 24
  %6 = load i32, ptr %5, align 8
  %7 = icmp sgt i32 %6, 0
  br i1 %7, label %.lr.ph, label %._crit_edge

.lr.ph:                                           ; preds = %3
  %8 = getelementptr inbounds nuw i8, ptr %2, i64 256
  br label %9

9:                                                ; preds = %.lr.ph, %22
  %indvars.iv = phi i64 [ 0, %.lr.ph ], [ %indvars.iv.next, %22 ]
  %10 = phi i32 [ %6, %.lr.ph ], [ %23, %22 ]
  %11 = sext i32 %10 to i64
  %12 = shl nsw i64 %11, 4
  %gep = getelementptr i8, ptr %invariant.gep, i64 %12
  %13 = getelementptr inbounds nuw %struct.FormData_pg_attribute, ptr %gep, i64 %indvars.iv
  %14 = tail call zeroext i1 @logicalrep_should_publish_column(ptr noundef %13, ptr noundef %.96.val, i32 noundef %.8.val) #13
  br i1 %14, label %15, label %22

15:                                               ; preds = %9
  %16 = getelementptr inbounds nuw i8, ptr %13, i64 68
  %17 = load i32, ptr %16, align 4
  %18 = icmp ult i32 %17, 10000
  br i1 %18, label %22, label %19

19:                                               ; preds = %15
  tail call void @OutputPluginPrepareWrite(ptr noundef %2, i1 noundef zeroext false) #13
  %20 = load ptr, ptr %8, align 8
  %21 = load i32, ptr %16, align 4
  tail call void @logicalrep_write_typ(ptr noundef %20, i32 noundef %1, i32 noundef %21) #13
  tail call void @OutputPluginWrite(ptr noundef %2, i1 noundef zeroext false) #13
  br label %22

22:                                               ; preds = %15, %9, %19
  %indvars.iv.next = add nuw nsw i64 %indvars.iv, 1
  %23 = load i32, ptr %5, align 8
  %24 = sext i32 %23 to i64
  %25 = icmp slt i64 %indvars.iv.next, %24
  br i1 %25, label %9, label %._crit_edge, !llvm.loop !15

._crit_edge:                                      ; preds = %22, %3
  tail call void @OutputPluginPrepareWrite(ptr noundef %2, i1 noundef zeroext false) #13
  %26 = getelementptr inbounds nuw i8, ptr %2, i64 256
  %27 = load ptr, ptr %26, align 8
  tail call void @logicalrep_write_rel(ptr noundef %27, i32 noundef %1, ptr noundef %0, ptr noundef %.96.val, i32 noundef %.8.val) #13
  tail call void @OutputPluginWrite(ptr noundef %2, i1 noundef zeroext false) #13
  ret void
}